target datalayout = "e-m:e-p270:32:32-p271:32:32-p272:64:64-i64:64-i128:128-f80:128-n8:16:32:64-S128"
target triple = "x86_64-pc-linux-gnu"

%struct.crypto_ex_data_st = type { ptr }
%struct.ssl_st = type { i32, i16, i16, ptr, ptr, ptr, ptr, ptr, i32, i32, ptr, ptr, i32, i32, ptr, ptr, ptr, ptr, ptr, ptr, ptr, ptr, i32, i32, [32 x i8], ptr, ptr, ptr, ptr, ptr, ptr, ptr, i64, %struct.crypto_ex_data_st, ptr, i32, i32, i32, i32, i16, ptr, i32, i64, ptr, ptr, ptr, ptr, ptr, ptr, i32, i32, ptr, ptr, i8, i8, i32 }
%struct.bio_st = type { ptr, ptr, ptr, i32, i32, i32, i32, i32, i32, ptr, ptr, i64, i64 }

@.str = private unnamed_addr constant [117 x i8] c"generated/home/dtcxzyw/WorkSpace/Projects/compilers/llvm-opt-benchmark/bench/libquic/libquic/boringssl/ssl/ssl_lib.c\00", align 1

; Function Attrs: nounwind uwtable
define hidden void @SSL_set_bio(ptr noundef %0, ptr noundef %1, ptr noundef %2) #0 {
  %4 = alloca ptr, align 8
  %5 = alloca ptr, align 8
  %6 = alloca ptr, align 8
  store ptr %0, ptr %4, align 8, !tbaa !80
  store ptr %1, ptr %5, align 8, !tbaa !143
  store ptr %2, ptr %6, align 8, !tbaa !143
  %7 = load ptr, ptr %4, align 8, !tbaa !80
  %8 = getelementptr inbounds nuw %struct.ssl_st, ptr %7, i32 0, i32 6
  %9 = load ptr, ptr %8, align 8, !tbaa !127
  %10 = icmp ne ptr %9, null
  br i1 %10, label %11, label %32

11:                                               ; preds = %3
  %12 = load ptr, ptr %4, align 8, !tbaa !80
  %13 = getelementptr inbounds nuw %struct.ssl_st, ptr %12, i32 0, i32 5
  %14 = load ptr, ptr %13, align 8, !tbaa !128
  %15 = load ptr, ptr %4, align 8, !tbaa !80
  %16 = getelementptr inbounds nuw %struct.ssl_st, ptr %15, i32 0, i32 6
  %17 = load ptr, ptr %16, align 8, !tbaa !127
  %18 = icmp eq ptr %14, %17
  br i1 %18, label %19, label %31

19:                                               ; preds = %11
  %20 = load ptr, ptr %4, align 8, !tbaa !80
  %21 = getelementptr inbounds nuw %struct.ssl_st, ptr %20, i32 0, i32 5
  %22 = load ptr, ptr %21, align 8, !tbaa !128
  %23 = getelementptr inbounds nuw %struct.bio_st, ptr %22, i32 0, i32 10
  %24 = load ptr, ptr %23, align 8, !tbaa !144
  %25 = load ptr, ptr %4, align 8, !tbaa !80
  %26 = getelementptr inbounds nuw %struct.ssl_st, ptr %25, i32 0, i32 5
  store ptr %24, ptr %26, align 8, !tbaa !128
  %27 = load ptr, ptr %4, align 8, !tbaa !80
  %28 = getelementptr inbounds nuw %struct.ssl_st, ptr %27, i32 0, i32 6
  %29 = load ptr, ptr %28, align 8, !tbaa !127
  %30 = getelementptr inbounds nuw %struct.bio_st, ptr %29, i32 0, i32 10
  store ptr null, ptr %30, align 8, !tbaa !144
  br label %31

31:                                               ; preds = %19, %11
  br label %32

32:                                               ; preds = %31, %3
  %33 = load ptr, ptr %4, align 8, !tbaa !80
  %34 = getelementptr inbounds nuw %struct.ssl_st, ptr %33, i32 0, i32 4
  %35 = load ptr, ptr %34, align 8, !tbaa !129
  %36 = load ptr, ptr %5, align 8, !tbaa !143
  %37 = icmp ne ptr %35, %36
  br i1 %37, label %38, label %42

38:                                               ; preds = %32
  %39 = load ptr, ptr %4, align 8, !tbaa !80
  %40 = getelementptr inbounds nuw %struct.ssl_st, ptr %39, i32 0, i32 4
  %41 = load ptr, ptr %40, align 8, !tbaa !129
  call void @BIO_free_all(ptr noundef %41)
  br label %42

42:                                               ; preds = %38, %32
  %43 = load ptr, ptr %4, align 8, !tbaa !80
  %44 = getelementptr inbounds nuw %struct.ssl_st, ptr %43, i32 0, i32 5
  %45 = load ptr, ptr %44, align 8, !tbaa !128
  %46 = load ptr, ptr %6, align 8, !tbaa !143
  %47 = icmp ne ptr %45, %46
  br i1 %47, label %48, label %60

48:                                               ; preds = %42
  %49 = load ptr, ptr %4, align 8, !tbaa !80
  %50 = getelementptr inbounds nuw %struct.ssl_st, ptr %49, i32 0, i32 4
  %51 = load ptr, ptr %50, align 8, !tbaa !129
  %52 = load ptr, ptr %4, align 8, !tbaa !80
  %53 = getelementptr inbounds nuw %struct.ssl_st, ptr %52, i32 0, i32 5
  %54 = load ptr, ptr %53, align 8, !tbaa !128
  %55 = icmp ne ptr %51, %54
  br i1 %55, label %56, label %60

56:                                               ; preds = %48
  %57 = load ptr, ptr %4, align 8, !tbaa !80
  %58 = getelementptr inbounds nuw %struct.ssl_st, ptr %57, i32 0, i32 5
  %59 = load ptr, ptr %58, align 8, !tbaa !128
  call void @BIO_free_all(ptr noundef %59)
  br label %60

60:                                               ; preds = %56, %48, %42
  %61 = load ptr, ptr %5, align 8, !tbaa !143
  %62 = load ptr, ptr %4, align 8, !tbaa !80
  %63 = getelementptr inbounds nuw %struct.ssl_st, ptr %62, i32 0, i32 4
  store ptr %61, ptr %63, align 8, !tbaa !129
  %64 = load ptr, ptr %6, align 8, !tbaa !143
  %65 = load ptr, ptr %4, align 8, !tbaa !80
  %66 = getelementptr inbounds nuw %struct.ssl_st, ptr %65, i32 0, i32 5
  store ptr %64, ptr %66, align 8, !tbaa !128
  ret void
}

; Function Attrs: nounwind uwtable
define hidden ptr @SSL_get_rbio(ptr noundef %0) #0 {
  %2 = alloca ptr, align 8
  store ptr %0, ptr %2, align 8, !tbaa !80
  %3 = load ptr, ptr %2, align 8, !tbaa !80
  %4 = getelementptr inbounds nuw %struct.ssl_st, ptr %3, i32 0, i32 4
  %5 = load ptr, ptr %4, align 8, !tbaa !129
  ret ptr %5
}

; Function Attrs: nounwind uwtable
define hidden i32 @SSL_set_wfd(ptr noundef %0, i32 noundef %1) #0 {
  %3 = alloca i32, align 4
  %4 = alloca ptr, align 8
  %5 = alloca i32, align 4
  %6 = alloca ptr, align 8
  %7 = alloca i32, align 4
  store ptr %0, ptr %4, align 8, !tbaa !80
  store i32 %1, ptr %5, align 4, !tbaa !61
  %8 = load ptr, ptr %4, align 8, !tbaa !80
  %9 = getelementptr inbounds nuw %struct.ssl_st, ptr %8, i32 0, i32 4
  %10 = load ptr, ptr %9, align 8, !tbaa !129
  %11 = icmp eq ptr %10, null
  br i1 %11, label %25, label %12

12:                                               ; preds = %2
  %13 = load ptr, ptr %4, align 8, !tbaa !80
  %14 = getelementptr inbounds nuw %struct.ssl_st, ptr %13, i32 0, i32 4
  %15 = load ptr, ptr %14, align 8, !tbaa !129
  %16 = call i32 @BIO_method_type(ptr noundef %15)
  %17 = icmp ne i32 %16, 1285
  br i1 %17, label %25, label %18

18:                                               ; preds = %12
  %19 = load ptr, ptr %4, align 8, !tbaa !80
  %20 = getelementptr inbounds nuw %struct.ssl_st, ptr %19, i32 0, i32 4
  %21 = load ptr, ptr %20, align 8, !tbaa !129
  %22 = call i32 @BIO_get_fd(ptr noundef %21, ptr noundef null)
  %23 = load i32, ptr %5, align 4, !tbaa !61
  %24 = icmp ne i32 %22, %23
  br i1 %24, label %25, label %42

25:                                               ; preds = %18, %12, %2
  call void @llvm.lifetime.start.p0(i64 8, ptr %6) #8
  %26 = call ptr @BIO_s_socket()
  %27 = call ptr @BIO_new(ptr noundef %26)
  store ptr %27, ptr %6, align 8, !tbaa !143
  %28 = load ptr, ptr %6, align 8, !tbaa !143
  %29 = icmp eq ptr %28, null
  br i1 %29, label %30, label %31

30:                                               ; preds = %25
  call void @ERR_put_error(i32 noundef 16, i32 noundef 0, i32 noundef 7, ptr noundef @.str, i32 noundef 1043)
  store i32 0, ptr %3, align 4
  store i32 1, ptr %7, align 4
  br label %39

31:                                               ; preds = %25
  %32 = load ptr, ptr %6, align 8, !tbaa !143
  %33 = load i32, ptr %5, align 4, !tbaa !61
  %34 = call i32 @BIO_set_fd(ptr noundef %32, i32 noundef %33, i32 noundef 0)
  %35 = load ptr, ptr %4, align 8, !tbaa !80
  %36 = load ptr, ptr %4, align 8, !tbaa !80
  %37 = call ptr @SSL_get_rbio(ptr noundef %36)
  %38 = load ptr, ptr %6, align 8, !tbaa !143
  call void @SSL_set_bio(ptr noundef %35, ptr noundef %37, ptr noundef %38)
  store i32 0, ptr %7, align 4
  br label %39

39:                                               ; preds = %31, %30
  call void @llvm.lifetime.end.p0(i64 8, ptr %6) #8
  %40 = load i32, ptr %7, align 4
  switch i32 %40, label %51 [
    i32 0, label %41
    i32 1, label %49
  ]

41:                                               ; preds = %39
  br label %48

42:                                               ; preds = %18
  %43 = load ptr, ptr %4, align 8, !tbaa !80
  %44 = load ptr, ptr %4, align 8, !tbaa !80
  %45 = call ptr @SSL_get_rbio(ptr noundef %44)
  %46 = load ptr, ptr %4, align 8, !tbaa !80
  %47 = call ptr @SSL_get_rbio(ptr noundef %46)
  call void @SSL_set_bio(ptr noundef %43, ptr noundef %45, ptr noundef %47)
  br label %48

48:                                               ; preds = %42, %41
  store i32 1, ptr %3, align 4
  br label %49

49:                                               ; preds = %48, %39
  %50 = load i32, ptr %3, align 4
  ret i32 %50

51:                                               ; preds = %39
  unreachable
}