; Function Attrs: nounwind uwtable
define hidden range(i32 0, 2) i32 @SSL_set_wfd(ptr noundef captures(none) %0, i32 noundef %1) local_unnamed_addr #0 {
  %3 = getelementptr inbounds nuw i8, ptr %0, i64 16
  %4 = load ptr, ptr %3, align 8, !tbaa !118
  %5 = icmp eq ptr %4, null
  br i1 %5, label %11, label %6

6:                                                ; preds = %2
  %7 = tail call i32 @BIO_method_type(ptr noundef nonnull %4) #21
  %.not = icmp eq i32 %7, 1285
  br i1 %.not, label %8, label %11

8:                                                ; preds = %6
  %9 = load ptr, ptr %3, align 8, !tbaa !118
  %10 = tail call i32 @BIO_get_fd(ptr noundef %9, ptr noundef null) #21
  %.not17 = icmp eq i32 %10, %1
  br i1 %.not17, label %29, label %11

11:                                               ; preds = %8, %6, %2
  %12 = tail call ptr @BIO_s_socket() #21
  %13 = tail call ptr @BIO_new(ptr noundef %12) #21
  %14 = icmp eq ptr %13, null
  br i1 %14, label %28, label %15

15:                                               ; preds = %11
  %16 = tail call i32 @BIO_set_fd(ptr noundef nonnull %13, i32 noundef %1, i32 noundef 0) #21
  %17 = load ptr, ptr %3, align 8, !tbaa !118
  %18 = getelementptr inbounds nuw i8, ptr %0, i64 32
  %19 = load ptr, ptr %18, align 8, !tbaa !116
  %.not.i = icmp ne ptr %19, null
  %.phi.trans.insert25 = getelementptr inbounds nuw i8, ptr %0, i64 24
  %.pre26 = load ptr, ptr %.phi.trans.insert25, align 8, !tbaa !117
  %20 = icmp eq ptr %.pre26, %19
  %or.cond = select i1 %.not.i, i1 %20, i1 false
  br i1 %or.cond, label %21, label %._crit_edge24

21:                                               ; preds = %15
  %22 = getelementptr inbounds nuw i8, ptr %.pre26, i64 56
  %23 = load ptr, ptr %22, align 8, !tbaa !132
  store ptr %23, ptr %.phi.trans.insert25, align 8, !tbaa !117
  %24 = getelementptr inbounds nuw i8, ptr %19, i64 56
  store ptr null, ptr %24, align 8, !tbaa !132
  br label %._crit_edge24

._crit_edge24:                                    ; preds = %15, %21
  %25 = phi ptr [ %23, %21 ], [ %.pre26, %15 ]
  %26 = getelementptr inbounds nuw i8, ptr %0, i64 24
  %.not22.i = icmp eq ptr %25, %13
  %.not23.i = icmp eq ptr %17, %25
  %or.cond27 = select i1 %.not22.i, i1 true, i1 %.not23.i
  br i1 %or.cond27, label %.thread, label %27

27:                                               ; preds = %._crit_edge24
  tail call void @BIO_free_all(ptr noundef %25) #21
  br label %.thread

.thread:                                          ; preds = %27, %._crit_edge24
  store ptr %17, ptr %3, align 8, !tbaa !118
  store ptr %13, ptr %26, align 8, !tbaa !117
  br label %41

28:                                               ; preds = %11
  tail call void @ERR_put_error(i32 noundef 16, i32 noundef 0, i32 noundef 7, ptr noundef nonnull @.str, i32 noundef 1043) #21
  br label %41

29:                                               ; preds = %8
  %30 = load ptr, ptr %3, align 8, !tbaa !118
  %31 = getelementptr inbounds nuw i8, ptr %0, i64 32
  %32 = load ptr, ptr %31, align 8, !tbaa !116
  %.not.i18 = icmp ne ptr %32, null
  %.phi.trans.insert = getelementptr inbounds nuw i8, ptr %0, i64 24
  %.pre = load ptr, ptr %.phi.trans.insert, align 8, !tbaa !117
  %33 = icmp eq ptr %.pre, %32
  %or.cond28 = select i1 %.not.i18, i1 %33, i1 false
  br i1 %or.cond28, label %34, label %._crit_edge

34:                                               ; preds = %29
  %35 = getelementptr inbounds nuw i8, ptr %.pre, i64 56
  %36 = load ptr, ptr %35, align 8, !tbaa !132
  store ptr %36, ptr %.phi.trans.insert, align 8, !tbaa !117
  %37 = getelementptr inbounds nuw i8, ptr %32, i64 56
  store ptr null, ptr %37, align 8, !tbaa !132
  br label %._crit_edge

._crit_edge:                                      ; preds = %29, %34
  %38 = phi ptr [ %36, %34 ], [ %.pre, %29 ]
  %39 = getelementptr inbounds nuw i8, ptr %0, i64 24
  %.not22.i20 = icmp eq ptr %38, %30
  br i1 %.not22.i20, label %SSL_set_bio.exit22, label %40

40:                                               ; preds = %._crit_edge
  tail call void @BIO_free_all(ptr noundef %38) #21
  br label %SSL_set_bio.exit22

SSL_set_bio.exit22:                               ; preds = %._crit_edge, %40
  store ptr %30, ptr %3, align 8, !tbaa !118
  store ptr %30, ptr %39, align 8, !tbaa !117
  br label %41

41:                                               ; preds = %SSL_set_bio.exit22, %.thread, %28
  %.1 = phi i32 [ 0, %28 ], [ 1, %.thread ], [ 1, %SSL_set_bio.exit22 ]
  ret i32 %.1
}